target datalayout = "e-m:e-p270:32:32-p271:32:32-p272:64:64-i64:64-i128:128-f80:128-n8:16:32:64-S128"
target triple = "x86_64-pc-linux-gnu"

%"class.pxrInternal_v0_24__pxrReserved__::PcpErrorBase" = type { ptr, i32, %"class.pxrInternal_v0_24__pxrReserved__::PcpSite" }
%"class.pxrInternal_v0_24__pxrReserved__::PcpSite" = type { %"class.pxrInternal_v0_24__pxrReserved__::PcpLayerStackIdentifier", %"class.pxrInternal_v0_24__pxrReserved__::SdfPath" }
%"class.pxrInternal_v0_24__pxrReserved__::PcpLayerStackIdentifier" = type { %"class.pxrInternal_v0_24__pxrReserved__::TfWeakPtr", %"class.pxrInternal_v0_24__pxrReserved__::TfWeakPtr", %"class.pxrInternal_v0_24__pxrReserved__::ArResolverContext", %"class.pxrInternal_v0_24__pxrReserved__::PcpExpressionVariablesSource", i64 }
%"class.pxrInternal_v0_24__pxrReserved__::TfWeakPtr" = type { ptr, %"class.pxrInternal_v0_24__pxrReserved__::TfRefPtr" }
%"class.pxrInternal_v0_24__pxrReserved__::TfRefPtr" = type { ptr }
%"class.pxrInternal_v0_24__pxrReserved__::ArResolverContext" = type { %"class.std::vector" }
%"class.std::vector" = type { %"struct.std::_Vector_base" }
%"struct.std::_Vector_base" = type { %"struct.std::_Vector_base<std::shared_ptr<pxrInternal_v0_24__pxrReserved__::ArResolverContext::_Untyped>, std::allocator<std::shared_ptr<pxrInternal_v0_24__pxrReserved__::ArResolverContext::_Untyped>>>::_Vector_impl" }
%"struct.std::_Vector_base<std::shared_ptr<pxrInternal_v0_24__pxrReserved__::ArResolverContext::_Untyped>, std::allocator<std::shared_ptr<pxrInternal_v0_24__pxrReserved__::ArResolverContext::_Untyped>>>::_Vector_impl" = type { %"struct.std::_Vector_base<std::shared_ptr<pxrInternal_v0_24__pxrReserved__::ArResolverContext::_Untyped>, std::allocator<std::shared_ptr<pxrInternal_v0_24__pxrReserved__::ArResolverContext::_Untyped>>>::_Vector_impl_data" }
%"struct.std::_Vector_base<std::shared_ptr<pxrInternal_v0_24__pxrReserved__::ArResolverContext::_Untyped>, std::allocator<std::shared_ptr<pxrInternal_v0_24__pxrReserved__::ArResolverContext::_Untyped>>>::_Vector_impl_data" = type { ptr, ptr, ptr }
%"class.pxrInternal_v0_24__pxrReserved__::PcpExpressionVariablesSource" = type { %"class.std::shared_ptr" }
%"class.std::shared_ptr" = type { %"class.std::__shared_ptr" }
%"class.std::__shared_ptr" = type { ptr, %"class.std::__shared_count" }
%"class.std::__shared_count" = type { ptr }
%"class.pxrInternal_v0_24__pxrReserved__::SdfPath" = type { %"struct.pxrInternal_v0_24__pxrReserved__::Sdf_PathNodeHandleImpl", %"struct.pxrInternal_v0_24__pxrReserved__::Sdf_PathNodeHandleImpl.0" }
%"struct.pxrInternal_v0_24__pxrReserved__::Sdf_PathNodeHandleImpl" = type { %"struct.pxrInternal_v0_24__pxrReserved__::Sdf_Pool<pxrInternal_v0_24__pxrReserved__::Sdf_PathPrimTag, 24, 8>::Handle" }
%"struct.pxrInternal_v0_24__pxrReserved__::Sdf_Pool<pxrInternal_v0_24__pxrReserved__::Sdf_PathPrimTag, 24, 8>::Handle" = type { i32 }
%"struct.pxrInternal_v0_24__pxrReserved__::Sdf_PathNodeHandleImpl.0" = type { %"struct.pxrInternal_v0_24__pxrReserved__::Sdf_Pool<pxrInternal_v0_24__pxrReserved__::Sdf_PathPropTag, 24, 8>::Handle" }
%"struct.pxrInternal_v0_24__pxrReserved__::Sdf_Pool<pxrInternal_v0_24__pxrReserved__::Sdf_PathPropTag, 24, 8>::Handle" = type { i32 }
%"class.std::__cxx11::basic_string" = type { %"struct.std::__cxx11::basic_string<char>::_Alloc_hider", i64, %union.anon }
%"struct.std::__cxx11::basic_string<char>::_Alloc_hider" = type { ptr }
%union.anon = type { i64, [8 x i8] }
%"class.pxrInternal_v0_24__pxrReserved__::PcpErrorInconsistentPropertyBase" = type { %"class.pxrInternal_v0_24__pxrReserved__::PcpErrorBase", %"class.std::__cxx11::basic_string", %"class.pxrInternal_v0_24__pxrReserved__::SdfPath", %"class.std::__cxx11::basic_string", %"class.pxrInternal_v0_24__pxrReserved__::SdfPath" }
%"class.pxrInternal_v0_24__pxrReserved__::PcpErrorInconsistentAttributeType" = type { %"class.pxrInternal_v0_24__pxrReserved__::PcpErrorInconsistentPropertyBase", %"class.pxrInternal_v0_24__pxrReserved__::TfToken", %"class.pxrInternal_v0_24__pxrReserved__::TfToken" }
%"class.pxrInternal_v0_24__pxrReserved__::TfToken" = type { %"class.pxrInternal_v0_24__pxrReserved__::TfPointerAndBits" }
%"class.pxrInternal_v0_24__pxrReserved__::TfPointerAndBits" = type { ptr }

; Function Attrs: mustprogress nounwind uwtable
define linkonce_odr void @_ZN32pxrInternal_v0_24__pxrReserved__8Sdf_PoolINS_15Sdf_PathPropTagELj24ELj8ELj16384EE6HandleC2EDn(ptr noundef nonnull align 4 dereferenceable(4) %0, ptr %1) unnamed_addr #2 comdat align 2 {
  %3 = alloca ptr, align 8
  %4 = alloca ptr, align 8
  store ptr %0, ptr %3, align 8
  store ptr %1, ptr %4, align 8
  %5 = load ptr, ptr %3, align 8
  %6 = getelementptr inbounds nuw %"struct.pxrInternal_v0_24__pxrReserved__::Sdf_Pool<pxrInternal_v0_24__pxrReserved__::Sdf_PathPropTag, 24, 8>::Handle", ptr %5, i32 0, i32 0
  store i32 0, ptr %6, align 4
  ret void
}

; Function Attrs: mustprogress nounwind uwtable
define linkonce_odr void @_ZN32pxrInternal_v0_24__pxrReserved__8Sdf_PoolINS_15Sdf_PathPrimTagELj24ELj8ELj16384EE6HandleC2EDn(ptr noundef nonnull align 4 dereferenceable(4) %0, ptr %1) unnamed_addr #2 comdat align 2 {
  %3 = alloca ptr, align 8
  %4 = alloca ptr, align 8
  store ptr %0, ptr %3, align 8
  store ptr %1, ptr %4, align 8
  %5 = load ptr, ptr %3, align 8
  %6 = getelementptr inbounds nuw %"struct.pxrInternal_v0_24__pxrReserved__::Sdf_Pool<pxrInternal_v0_24__pxrReserved__::Sdf_PathPrimTag, 24, 8>::Handle", ptr %5, i32 0, i32 0
  store i32 0, ptr %6, align 4
  ret void
}

; Function Attrs: mustprogress nounwind uwtable
define linkonce_odr void @_ZN32pxrInternal_v0_24__pxrReserved__22Sdf_PathNodeHandleImplINS_8Sdf_PoolINS_15Sdf_PathPropTagELj24ELj8ELj16384EE6HandleELb0EKNS_12Sdf_PathNodeEEC2Ev(ptr noundef nonnull align 4 dereferenceable(4) %0) unnamed_addr #2 comdat align 2 {
  %2 = alloca ptr, align 8
  store ptr %0, ptr %2, align 8
  %3 = load ptr, ptr %2, align 8
  %4 = getelementptr inbounds nuw %"struct.pxrInternal_v0_24__pxrReserved__::Sdf_PathNodeHandleImpl.0", ptr %3, i32 0, i32 0
  call void @_ZN32pxrInternal_v0_24__pxrReserved__8Sdf_PoolINS_15Sdf_PathPropTagELj24ELj8ELj16384EE6HandleC2EDn(ptr noundef nonnull align 4 dereferenceable(4) %4, ptr null) #8
  ret void
}

; Function Attrs: mustprogress nounwind uwtable
define linkonce_odr void @_ZN32pxrInternal_v0_24__pxrReserved__22Sdf_PathNodeHandleImplINS_8Sdf_PoolINS_15Sdf_PathPrimTagELj24ELj8ELj16384EE6HandleELb1EKNS_12Sdf_PathNodeEEC2Ev(ptr noundef nonnull align 4 dereferenceable(4) %0) unnamed_addr #2 comdat align 2 {
  %2 = alloca ptr, align 8
  store ptr %0, ptr %2, align 8
  %3 = load ptr, ptr %2, align 8
  %4 = getelementptr inbounds nuw %"struct.pxrInternal_v0_24__pxrReserved__::Sdf_PathNodeHandleImpl", ptr %3, i32 0, i32 0
  call void @_ZN32pxrInternal_v0_24__pxrReserved__8Sdf_PoolINS_15Sdf_PathPrimTagELj24ELj8ELj16384EE6HandleC2EDn(ptr noundef nonnull align 4 dereferenceable(4) %4, ptr null) #8
  ret void
}

; Function Attrs: mustprogress nounwind uwtable
define linkonce_odr void @_ZN32pxrInternal_v0_24__pxrReserved__16TfPointerAndBitsIKNS_7TfToken4_RepEEC2Ev(ptr noundef nonnull align 8 dereferenceable(8) %0) unnamed_addr #2 comdat align 2 {
  %2 = alloca ptr, align 8
  store ptr %0, ptr %2, align 8
  %3 = load ptr, ptr %2, align 8
  %4 = getelementptr inbounds nuw %"class.pxrInternal_v0_24__pxrReserved__::TfPointerAndBits", ptr %3, i32 0, i32 0
  store ptr null, ptr %4, align 8
  ret void
}

; Function Attrs: mustprogress nounwind uwtable
define linkonce_odr void @_ZN32pxrInternal_v0_24__pxrReserved__7SdfPathC2Ev(ptr noundef nonnull align 4 dereferenceable(8) %0) unnamed_addr #2 comdat align 2 {
  %2 = alloca ptr, align 8
  store ptr %0, ptr %2, align 8
  %3 = load ptr, ptr %2, align 8
  %4 = getelementptr inbounds nuw %"class.pxrInternal_v0_24__pxrReserved__::SdfPath", ptr %3, i32 0, i32 0
  call void @_ZN32pxrInternal_v0_24__pxrReserved__22Sdf_PathNodeHandleImplINS_8Sdf_PoolINS_15Sdf_PathPrimTagELj24ELj8ELj16384EE6HandleELb1EKNS_12Sdf_PathNodeEEC2Ev(ptr noundef nonnull align 4 dereferenceable(4) %4) #8
  %5 = getelementptr inbounds nuw %"class.pxrInternal_v0_24__pxrReserved__::SdfPath", ptr %3, i32 0, i32 1
  call void @_ZN32pxrInternal_v0_24__pxrReserved__22Sdf_PathNodeHandleImplINS_8Sdf_PoolINS_15Sdf_PathPropTagELj24ELj8ELj16384EE6HandleELb0EKNS_12Sdf_PathNodeEEC2Ev(ptr noundef nonnull align 4 dereferenceable(4) %5) #8
  ret void
}

; Function Attrs: mustprogress uwtable
define void @_ZN32pxrInternal_v0_24__pxrReserved__12PcpErrorBaseC2ENS_12PcpErrorTypeE(ptr noundef nonnull align 8 dereferenceable(104) %0, i32 noundef %1) unnamed_addr #0 align 2 {
  %3 = alloca ptr, align 8
  %4 = alloca i32, align 4
  store ptr %0, ptr %3, align 8
  store i32 %1, ptr %4, align 4
  %5 = load ptr, ptr %3, align 8
  store ptr getelementptr inbounds inrange(-16, 24) ({ [5 x ptr] }, ptr @_ZTVN32pxrInternal_v0_24__pxrReserved__12PcpErrorBaseE, i32 0, i32 0, i32 2), ptr %5, align 8
  %6 = getelementptr inbounds nuw %"class.pxrInternal_v0_24__pxrReserved__::PcpErrorBase", ptr %5, i32 0, i32 1
  %7 = load i32, ptr %4, align 4
  store i32 %7, ptr %6, align 8
  %8 = getelementptr inbounds nuw %"class.pxrInternal_v0_24__pxrReserved__::PcpErrorBase", ptr %5, i32 0, i32 2
  call void @_ZN32pxrInternal_v0_24__pxrReserved__7PcpSiteC1Ev(ptr noundef nonnull align 8 dereferenceable(88) %8)
  ret void
}

; Function Attrs: mustprogress nounwind uwtable
define linkonce_odr void @_ZN32pxrInternal_v0_24__pxrReserved__7TfTokenC2Ev(ptr noundef nonnull align 8 dereferenceable(8) %0) unnamed_addr #2 comdat align 2 {
  %2 = alloca ptr, align 8
  store ptr %0, ptr %2, align 8
  %3 = load ptr, ptr %2, align 8
  %4 = getelementptr inbounds nuw %"class.pxrInternal_v0_24__pxrReserved__::TfToken", ptr %3, i32 0, i32 0
  call void @_ZN32pxrInternal_v0_24__pxrReserved__16TfPointerAndBitsIKNS_7TfToken4_RepEEC2Ev(ptr noundef nonnull align 8 dereferenceable(8) %4) #8
  ret void
}

; Function Attrs: mustprogress uwtable
define void @_ZN32pxrInternal_v0_24__pxrReserved__32PcpErrorInconsistentPropertyBaseC2ENS_12PcpErrorTypeE(ptr noundef nonnull align 8 dereferenceable(184) %0, i32 noundef %1) unnamed_addr #0 align 2 {
  %3 = alloca ptr, align 8
  %4 = alloca i32, align 4
  store ptr %0, ptr %3, align 8
  store i32 %1, ptr %4, align 4
  %5 = load ptr, ptr %3, align 8
  %6 = load i32, ptr %4, align 4
  call void @_ZN32pxrInternal_v0_24__pxrReserved__12PcpErrorBaseC2ENS_12PcpErrorTypeE(ptr noundef nonnull align 8 dereferenceable(104) %5, i32 noundef %6)
  store ptr getelementptr inbounds inrange(-16, 24) ({ [5 x ptr] }, ptr @_ZTVN32pxrInternal_v0_24__pxrReserved__32PcpErrorInconsistentPropertyBaseE, i32 0, i32 0, i32 2), ptr %5, align 8
  %7 = getelementptr inbounds nuw %"class.pxrInternal_v0_24__pxrReserved__::PcpErrorInconsistentPropertyBase", ptr %5, i32 0, i32 1
  call void @_ZNSt7__cxx1112basic_stringIcSt11char_traitsIcESaIcEEC1Ev(ptr noundef nonnull align 8 dereferenceable(32) %7) #8
  %8 = getelementptr inbounds nuw %"class.pxrInternal_v0_24__pxrReserved__::PcpErrorInconsistentPropertyBase", ptr %5, i32 0, i32 2
  call void @_ZN32pxrInternal_v0_24__pxrReserved__7SdfPathC2Ev(ptr noundef nonnull align 4 dereferenceable(8) %8) #8
  %9 = getelementptr inbounds nuw %"class.pxrInternal_v0_24__pxrReserved__::PcpErrorInconsistentPropertyBase", ptr %5, i32 0, i32 3
  call void @_ZNSt7__cxx1112basic_stringIcSt11char_traitsIcESaIcEEC1Ev(ptr noundef nonnull align 8 dereferenceable(32) %9) #8
  %10 = getelementptr inbounds nuw %"class.pxrInternal_v0_24__pxrReserved__::PcpErrorInconsistentPropertyBase", ptr %5, i32 0, i32 4
  call void @_ZN32pxrInternal_v0_24__pxrReserved__7SdfPathC2Ev(ptr noundef nonnull align 4 dereferenceable(8) %10) #8
  ret void
}

; Function Attrs: mustprogress uwtable
define void @_ZN32pxrInternal_v0_24__pxrReserved__33PcpErrorInconsistentAttributeTypeC2Ev(ptr noundef nonnull align 8 dereferenceable(200) %0) unnamed_addr #0 align 2 {
  %2 = alloca ptr, align 8
  store ptr %0, ptr %2, align 8
  %3 = load ptr, ptr %2, align 8
  call void @_ZN32pxrInternal_v0_24__pxrReserved__32PcpErrorInconsistentPropertyBaseC2ENS_12PcpErrorTypeE(ptr noundef nonnull align 8 dereferenceable(184) %3, i32 noundef 7)
  store ptr getelementptr inbounds inrange(-16, 24) ({ [5 x ptr] }, ptr @_ZTVN32pxrInternal_v0_24__pxrReserved__33PcpErrorInconsistentAttributeTypeE, i32 0, i32 0, i32 2), ptr %3, align 8
  %4 = getelementptr inbounds nuw %"class.pxrInternal_v0_24__pxrReserved__::PcpErrorInconsistentAttributeType", ptr %3, i32 0, i32 1
  call void @_ZN32pxrInternal_v0_24__pxrReserved__7TfTokenC2Ev(ptr noundef nonnull align 8 dereferenceable(8) %4) #8
  %5 = getelementptr inbounds nuw %"class.pxrInternal_v0_24__pxrReserved__::PcpErrorInconsistentAttributeType", ptr %3, i32 0, i32 2
  call void @_ZN32pxrInternal_v0_24__pxrReserved__7TfTokenC2Ev(ptr noundef nonnull align 8 dereferenceable(8) %5) #8
  ret void
}